target datalayout = "e-m:e-p270:32:32-p271:32:32-p272:64:64-i64:64-i128:128-f80:128-n8:16:32:64-S128"
target triple = "x86_64-pc-linux-gnu"

%"class.algebraic_numbers::manager" = type <{ ptr, ptr, i8, [7 x i8] }>

; Function Attrs: mustprogress uwtable
define linkonce_odr hidden void @_Z7deallocI22small_object_allocatorEvPT_(ptr noundef %0) #4 comdat {
  %2 = alloca ptr, align 8
  store ptr %0, ptr %2, align 8, !tbaa !16
  %3 = load ptr, ptr %2, align 8, !tbaa !16
  %4 = icmp eq ptr %3, null
  br i1 %4, label %5, label %6

5:                                                ; preds = %1
  br label %9

6:                                                ; preds = %1
  %7 = load ptr, ptr %2, align 8, !tbaa !16
  call void @_ZN22small_object_allocatorD1Ev(ptr noundef nonnull align 8 dereferenceable(520) %7) #3
  %8 = load ptr, ptr %2, align 8, !tbaa !16
  call void @_ZN6memory10deallocateEPv(ptr noundef %8)
  br label %9

9:                                                ; preds = %6, %5
  ret void
}

; Function Attrs: mustprogress uwtable
define linkonce_odr hidden void @_Z7deallocIN17algebraic_numbers7manager3impEEvPT_(ptr noundef %0) #4 comdat {
  %2 = alloca ptr, align 8
  store ptr %0, ptr %2, align 8, !tbaa !24
  %3 = load ptr, ptr %2, align 8, !tbaa !24
  %4 = icmp eq ptr %3, null
  br i1 %4, label %5, label %6

5:                                                ; preds = %1
  br label %9

6:                                                ; preds = %1
  %7 = load ptr, ptr %2, align 8, !tbaa !24
  call void @_ZN17algebraic_numbers7manager3impD2Ev(ptr noundef nonnull align 8 dereferenceable(936) %7) #3
  %8 = load ptr, ptr %2, align 8, !tbaa !24
  call void @_ZN6memory10deallocateEPv(ptr noundef %8)
  br label %9

9:                                                ; preds = %6, %5
  ret void
}

; Function Attrs: mustprogress nounwind uwtable
define hidden void @_ZN17algebraic_numbers7managerD2Ev(ptr noundef nonnull align 8 dereferenceable(17) %0) unnamed_addr #5 align 2 personality ptr @__gxx_personality_v0 {
  %2 = alloca ptr, align 8
  store ptr %0, ptr %2, align 8, !tbaa !8
  %3 = load ptr, ptr %2, align 8
  %4 = getelementptr inbounds nuw %"class.algebraic_numbers::manager", ptr %3, i32 0, i32 0
  %5 = load ptr, ptr %4, align 8, !tbaa !23
  invoke void @_Z7deallocIN17algebraic_numbers7manager3impEEvPT_(ptr noundef %5)
          to label %6 unwind label %15

6:                                                ; preds = %1
  %7 = getelementptr inbounds nuw %"class.algebraic_numbers::manager", ptr %3, i32 0, i32 2
  %8 = load i8, ptr %7, align 8, !tbaa !18, !range !62, !noundef !63
  %9 = trunc i8 %8 to i1
  br i1 %9, label %10, label %14

10:                                               ; preds = %6
  %11 = getelementptr inbounds nuw %"class.algebraic_numbers::manager", ptr %3, i32 0, i32 1
  %12 = load ptr, ptr %11, align 8, !tbaa !22
  invoke void @_Z7deallocI22small_object_allocatorEvPT_(ptr noundef %12)
          to label %13 unwind label %15

13:                                               ; preds = %10
  br label %14

14:                                               ; preds = %13, %6
  ret void

15:                                               ; preds = %10, %1
  %16 = landingpad { ptr, i32 }
          catch ptr null
  %17 = extractvalue { ptr, i32 } %16, 0
  call void @__clang_call_terminate(ptr %17) #23
  unreachable
}