; Function Attrs: mustprogress nounwind uwtable
define hidden void @_ZN17algebraic_numbers7managerD2Ev(ptr noundef nonnull readonly align 8 captures(none) dereferenceable(17) %0) unnamed_addr #4 align 2 personality ptr @__gxx_personality_v0 {
  %2 = load ptr, ptr %0, align 8, !tbaa !12
  %3 = icmp eq ptr %2, null
  br i1 %3, label %_Z7deallocIN17algebraic_numbers7manager3impEEvPT_.exit, label %4

4:                                                ; preds = %1
  tail call void @_ZN17algebraic_numbers7manager3impD2Ev(ptr noundef nonnull align 8 dereferenceable(936) %2) #29
  invoke void @_ZN6memory10deallocateEPv(ptr noundef nonnull %2)
          to label %_Z7deallocIN17algebraic_numbers7manager3impEEvPT_.exit unwind label %13

_Z7deallocIN17algebraic_numbers7manager3impEEvPT_.exit: ; preds = %1, %4
  %5 = getelementptr inbounds nuw i8, ptr %0, i64 16
  %6 = load i8, ptr %5, align 8, !tbaa !3, !range !63, !noundef !64
  %7 = trunc nuw i8 %6 to i1
  br i1 %7, label %8, label %_Z7deallocI22small_object_allocatorEvPT_.exit

8:                                                ; preds = %_Z7deallocIN17algebraic_numbers7manager3impEEvPT_.exit
  %9 = getelementptr inbounds nuw i8, ptr %0, i64 8
  %10 = load ptr, ptr %9, align 8, !tbaa !11
  %11 = icmp eq ptr %10, null
  br i1 %11, label %_Z7deallocI22small_object_allocatorEvPT_.exit, label %12

12:                                               ; preds = %8
  tail call void @_ZN22small_object_allocatorD1Ev(ptr noundef nonnull align 8 dereferenceable(520) %10) #29
  invoke void @_ZN6memory10deallocateEPv(ptr noundef nonnull %10)
          to label %_Z7deallocI22small_object_allocatorEvPT_.exit unwind label %13

_Z7deallocI22small_object_allocatorEvPT_.exit:    ; preds = %8, %12, %_Z7deallocIN17algebraic_numbers7manager3impEEvPT_.exit
  ret void

13:                                               ; preds = %12, %4
  %14 = landingpad { ptr, i32 }
          catch ptr null
  %15 = extractvalue { ptr, i32 } %14, 0
  tail call void @__clang_call_terminate(ptr %15) #30
  unreachable
}